; Function Attrs: mustprogress uwtable
define hidden void @_ZN2cv8ximgproc25EdgeAwareInterpolatorImpl6createEv(ptr dead_on_unwind noalias writable writeonly sret(%"struct.cv::Ptr") align 8 captures(none) %0) local_unnamed_addr #3 align 2 personality ptr @__gxx_personality_v0 {
  %2 = alloca %"class.cv::Mat", align 8
  %3 = tail call noalias noundef nonnull dereferenceable(480) ptr @_Znwm(i64 noundef 480) #32
  tail call void @llvm.memset.p0.i64(ptr noundef nonnull align 16 dereferenceable(480) %3, i8 0, i64 480, i1 false)
  invoke void @_ZN2cv9AlgorithmC2Ev(ptr noundef nonnull align 8 dereferenceable(480) %3)
          to label %.noexc unwind label %35

.noexc:                                           ; preds = %1
  store ptr getelementptr inbounds nuw inrange(-16, 176) (i8, ptr @_ZTVN2cv8ximgproc25EdgeAwareInterpolatorImplE, i64 16), ptr %3, align 8, !tbaa !29
  %4 = getelementptr inbounds nuw i8, ptr %3, i64 32
  tail call void @_ZN2cv3MatC1Ev(ptr noundef nonnull align 8 dereferenceable(96) %4) #31
  %5 = getelementptr inbounds nuw i8, ptr %3, i64 128
  tail call void @_ZN2cv3MatC1Ev(ptr noundef nonnull align 8 dereferenceable(96) %5) #31
  %6 = getelementptr inbounds nuw i8, ptr %3, i64 224
  tail call void @_ZN2cv3MatC1Ev(ptr noundef nonnull align 8 dereferenceable(96) %6) #31
  %7 = getelementptr inbounds nuw i8, ptr %3, i64 320
  tail call void @_ZN2cv3MatC1Ev(ptr noundef nonnull align 8 dereferenceable(96) %7) #31
  br label %8

8:                                                ; preds = %8, %.noexc
  %.idx.i = phi i64 [ 448, %.noexc ], [ %.add.i, %8 ]
  %.ptr.i = getelementptr inbounds nuw i8, ptr %3, i64 %.idx.i
  store i64 4294967295, ptr %.ptr.i, align 8, !tbaa !31
  %.add.i = add nuw nsw i64 %.idx.i, 8
  %9 = icmp eq i64 %.add.i, 480
  br i1 %9, label %_ZN2cv8ximgproc25EdgeAwareInterpolatorImplC2Ev.exit, label %8

_ZN2cv8ximgproc25EdgeAwareInterpolatorImplC2Ev.exit: ; preds = %8
  %10 = getelementptr inbounds nuw i8, ptr %3, i64 416
  store float 9.990000e+02, ptr %10, align 8, !tbaa !3
  %11 = getelementptr inbounds nuw i8, ptr %3, i64 420
  store i32 128, ptr %11, align 4, !tbaa !23
  %12 = getelementptr inbounds nuw i8, ptr %3, i64 424
  store float 0x3FA99999A0000000, ptr %12, align 8, !tbaa !24
  %13 = getelementptr inbounds nuw i8, ptr %3, i64 428
  store i8 1, ptr %13, align 4, !tbaa !25
  %14 = getelementptr inbounds nuw i8, ptr %3, i64 432
  store float 5.000000e+02, ptr %14, align 8, !tbaa !26
  %15 = getelementptr inbounds nuw i8, ptr %3, i64 436
  store float 1.500000e+00, ptr %15, align 4, !tbaa !27
  %16 = getelementptr inbounds nuw i8, ptr %3, i64 440
  store float 0x3F847AE140000000, ptr %16, align 8, !tbaa !28
  call void @llvm.lifetime.start.p0(i64 96, ptr nonnull %2) #31
  call void @_ZN2cv3MatC1Ev(ptr noundef nonnull align 8 dereferenceable(96) %2) #31
  %17 = invoke noundef nonnull align 8 dereferenceable(96) ptr @_ZN2cv3MataSEOS0_(ptr noundef nonnull align 8 dereferenceable(96) %7, ptr noundef nonnull align 8 dereferenceable(96) %2)
          to label %_ZN2cv8ximgproc25EdgeAwareInterpolatorImpl4initEv.exit unwind label %18

common.resume:                                    ; preds = %26, %35, %18
  %common.resume.op = phi { ptr, i32 } [ %19, %18 ], [ %36, %35 ], [ %27, %26 ]
  resume { ptr, i32 } %common.resume.op

18:                                               ; preds = %_ZN2cv8ximgproc25EdgeAwareInterpolatorImplC2Ev.exit
  %19 = landingpad { ptr, i32 }
          cleanup
  call void @_ZN2cv3MatD1Ev(ptr noundef nonnull align 8 dereferenceable(96) %2) #31
  call void @llvm.lifetime.end.p0(i64 96, ptr nonnull %2) #31
  br label %common.resume

_ZN2cv8ximgproc25EdgeAwareInterpolatorImpl4initEv.exit: ; preds = %_ZN2cv8ximgproc25EdgeAwareInterpolatorImplC2Ev.exit
  call void @_ZN2cv3MatD1Ev(ptr noundef nonnull align 8 dereferenceable(96) %2) #31
  call void @llvm.lifetime.end.p0(i64 96, ptr nonnull %2) #31
  store ptr %3, ptr %0, align 8, !tbaa !34
  %20 = getelementptr inbounds nuw i8, ptr %0, i64 8
  store ptr null, ptr %20, align 8, !tbaa !39
  %21 = invoke noalias noundef nonnull dereferenceable(24) ptr @_Znwm(i64 noundef 24) #32
          to label %_ZNSt14__shared_countILN9__gnu_cxx12_Lock_policyE2EEC2IPN2cv8ximgproc25EdgeAwareInterpolatorImplEEET_.exit unwind label %22

22:                                               ; preds = %_ZN2cv8ximgproc25EdgeAwareInterpolatorImpl4initEv.exit
  %23 = landingpad { ptr, i32 }
          catch ptr null
  %24 = extractvalue { ptr, i32 } %23, 0
  %25 = call ptr @__cxa_begin_catch(ptr %24) #31
  call void @_ZN2cv8ximgproc25EdgeAwareInterpolatorImplD2Ev(ptr noundef nonnull align 8 dereferenceable(480) %3) #31
  call void @_ZdlPv(ptr noundef nonnull %3) #33
  invoke void @__cxa_rethrow() #34
          to label %31 unwind label %26

26:                                               ; preds = %22
  %27 = landingpad { ptr, i32 }
          cleanup
  invoke void @__cxa_end_catch()
          to label %common.resume unwind label %28

28:                                               ; preds = %26
  %29 = landingpad { ptr, i32 }
          catch ptr null
  %30 = extractvalue { ptr, i32 } %29, 0
  call void @__clang_call_terminate(ptr %30) #35
  unreachable

31:                                               ; preds = %22
  unreachable

_ZNSt14__shared_countILN9__gnu_cxx12_Lock_policyE2EEC2IPN2cv8ximgproc25EdgeAwareInterpolatorImplEEET_.exit: ; preds = %_ZN2cv8ximgproc25EdgeAwareInterpolatorImpl4initEv.exit
  %32 = getelementptr inbounds nuw i8, ptr %21, i64 8
  store i32 1, ptr %32, align 8, !tbaa !40
  %33 = getelementptr inbounds nuw i8, ptr %21, i64 12
  store i32 1, ptr %33, align 4, !tbaa !42
  store ptr getelementptr inbounds nuw inrange(-16, 40) (i8, ptr @_ZTVSt15_Sp_counted_ptrIPN2cv8ximgproc25EdgeAwareInterpolatorImplELN9__gnu_cxx12_Lock_policyE2EE, i64 16), ptr %21, align 8, !tbaa !29
  %34 = getelementptr inbounds nuw i8, ptr %21, i64 16
  store ptr %3, ptr %34, align 8, !tbaa !43
  store ptr %21, ptr %20, align 8, !tbaa !39
  ret void

35:                                               ; preds = %1
  %36 = landingpad { ptr, i32 }
          cleanup
  tail call void @_ZdlPv(ptr noundef nonnull %3) #33
  br label %common.resume
}